; ModuleID = 'bench/gromacs/original/listed_internal.cpp.ll'
source_filename = "bench/gromacs/original/listed_internal.cpp.ll"
target datalayout = "e-m:e-p270:32:32-p271:32:32-p272:64:64-i64:64-i128:128-f80:128-n8:16:32:64-S128"
target triple = "x86_64-pc-linux-gnu"

; Function Attrs: mustprogress nofree norecurse nosync nounwind willreturn memory(argmem: read) uwtable
define noundef i32 @_Z6glatnrPKii(ptr noundef readonly %0, i32 noundef %1) local_unnamed_addr #0 {
  %3 = icmp eq ptr %0, null
  br i1 %3, label %8, label %4

4:                                                ; preds = %2
  %5 = sext i32 %1 to i64
  %6 = getelementptr inbounds i32, ptr %0, i64 %5
  %7 = load i32, ptr %6, align 4
  br label %8

8:                                                ; preds = %2, %4
  %.0.in = phi i32 [ %7, %4 ], [ %1, %2 ]
  %.0 = add nsw i32 %.0.in, 1
  ret i32 %.0
}


!llvm.module.flags = !{!0, !1, !2, !3, !4}

!0 = !{i32 1, !"wchar_size", i32 4}
!1 = !{i32 7, !"openmp", i32 51}
!2 = !{i32 8, !"PIC Level", i32 2}
!3 = !{i32 7, !"uwtable", i32 2}
!4 = !{i32 7, !"frame-pointer", i32 2}
